; Function Attrs: nofree norecurse nosync nounwind memory(read, argmem: readwrite, inaccessiblemem: none) uwtable
define hidden i32 @VP8LReadBits(ptr nocapture noundef %0, i32 noundef %1) local_unnamed_addr #6 {
  %3 = getelementptr inbounds i8, ptr %0, i64 36
  %4 = load i32, ptr %3, align 4
  %5 = icmp eq i32 %4, 0
  %6 = icmp slt i32 %1, 25
  %or.cond = and i1 %6, %5
  %7 = getelementptr i8, ptr %0, i64 32
  br i1 %or.cond, label %8, label %ShiftBytes.exit.sink.split

8:                                                ; preds = %2
  %.val = load i64, ptr %0, align 8
  %.val13 = load i32, ptr %7, align 8
  %9 = and i32 %.val13, 63
  %10 = zext nneg i32 %9 to i64
  %11 = lshr i64 %.val, %10
  %12 = trunc i64 %11 to i32
  %13 = sext i32 %1 to i64
  %14 = getelementptr inbounds [25 x i32], ptr @kBitMask, i64 0, i64 %13
  %15 = load i32, ptr %14, align 4
  %16 = and i32 %15, %12
  %17 = add nsw i32 %.val13, %1
  store i32 %17, ptr %7, align 8
  %18 = getelementptr inbounds i8, ptr %0, i64 24
  %19 = icmp sgt i32 %17, 7
  br i1 %19, label %.lr.ph.i, label %ShiftBytes.exit

.lr.ph.i:                                         ; preds = %8
  %20 = getelementptr inbounds i8, ptr %0, i64 16
  %21 = load i64, ptr %20, align 8
  %22 = getelementptr inbounds i8, ptr %0, i64 8
  %.promoted19.i = load i64, ptr %18, align 8
  br label %23

23:                                               ; preds = %28, %.lr.ph.i
  %24 = phi i64 [ %.val, %.lr.ph.i ], [ %35, %28 ]
  %25 = phi i64 [ %.promoted19.i, %.lr.ph.i ], [ %36, %28 ]
  %26 = phi i32 [ %17, %.lr.ph.i ], [ %37, %28 ]
  %27 = icmp ult i64 %25, %21
  br i1 %27, label %28, label %.critedge.i

28:                                               ; preds = %23
  %29 = lshr i64 %24, 8
  store i64 %29, ptr %0, align 8
  %30 = load ptr, ptr %22, align 8
  %31 = getelementptr inbounds i8, ptr %30, i64 %25
  %32 = load i8, ptr %31, align 1
  %33 = zext i8 %32 to i64
  %34 = shl nuw i64 %33, 56
  %35 = or disjoint i64 %34, %29
  store i64 %35, ptr %0, align 8
  %36 = add nuw i64 %25, 1
  store i64 %36, ptr %18, align 8
  %37 = add nsw i32 %26, -8
  store i32 %37, ptr %7, align 8
  %38 = icmp sgt i32 %26, 15
  br i1 %38, label %23, label %ShiftBytes.exit, !llvm.loop !31

.critedge.i:                                      ; preds = %23
  %39 = icmp ult i32 %26, 65
  %40 = icmp ne i64 %25, %21
  %or.cond.i = or i1 %39, %40
  br i1 %or.cond.i, label %ShiftBytes.exit, label %ShiftBytes.exit.sink.split

ShiftBytes.exit.sink.split:                       ; preds = %2, %.critedge.i
  %.0.ph = phi i32 [ %16, %.critedge.i ], [ 0, %2 ]
  store i32 1, ptr %3, align 4
  store i32 0, ptr %7, align 8
  br label %ShiftBytes.exit

ShiftBytes.exit:                                  ; preds = %28, %ShiftBytes.exit.sink.split, %8, %.critedge.i
  %.0 = phi i32 [ %16, %.critedge.i ], [ %16, %8 ], [ %.0.ph, %ShiftBytes.exit.sink.split ], [ %16, %28 ]
  ret i32 %.0
}